(dp0
S'engine'
p1
Vxelatex
p2
sS'packages'
p3
c__builtin__
set
p4
((lp5
Vxunicode
p6
aVmulticol
p7
aVfancyhdr
p8
aVcolor
p9
aVfontspec
p10
aVurl
p11
atp12
Rp13
sS'files_with_guttermarks'
p14
g4
((lp15
S'MSteenhagen-CV.tex'
p16
aS'/Users/msteenhagen/Dropbox/Own-Work/ARCHIVE/(CV) Resume/New academic CV/./MSteenhagen-CV.tex'
p17
atp18
Rp19
sS'synctex'
p20
I01
s.